; Function Attrs: mustprogress uwtable
define hidden void @_ZN4ncnn3Mat12from_float16EPKti(ptr dead_on_unwind noalias writable sret(%"class.ncnn::Mat") align 8 initializes((0, 28), (32, 60), (64, 72)) %0, ptr noundef %1, i32 noundef %2) local_unnamed_addr #0 align 2 personality ptr @__gxx_personality_v0 {
  %4 = alloca %"class.ncnn::Mat", align 8
  %5 = alloca %"class.ncnn::Option", align 8
  call void @llvm.lifetime.start.p0(i64 72, ptr nonnull %4) #12
  store ptr %1, ptr %4, align 8, !tbaa !4
  %6 = getelementptr inbounds nuw i8, ptr %4, i64 8
  store ptr null, ptr %6, align 8, !tbaa !19
  %7 = getelementptr inbounds nuw i8, ptr %4, i64 16
  store i64 2, ptr %7, align 8, !tbaa !17
  %8 = getelementptr inbounds nuw i8, ptr %4, i64 24
  store i32 1, ptr %8, align 8, !tbaa !18
  %9 = getelementptr inbounds nuw i8, ptr %4, i64 32
  store ptr null, ptr %9, align 8, !tbaa !30
  %10 = getelementptr inbounds nuw i8, ptr %4, i64 40
  store i32 1, ptr %10, align 8, !tbaa !15
  %11 = getelementptr inbounds nuw i8, ptr %4, i64 44
  store i32 %2, ptr %11, align 4, !tbaa !16
  %12 = getelementptr inbounds nuw i8, ptr %4, i64 48
  store i32 1, ptr %12, align 8, !tbaa !20
  %13 = getelementptr inbounds nuw i8, ptr %4, i64 52
  store i32 1, ptr %13, align 4, !tbaa !21
  %14 = getelementptr inbounds nuw i8, ptr %4, i64 56
  store i32 1, ptr %14, align 8, !tbaa !14
  %15 = sext i32 %2 to i64
  %16 = getelementptr inbounds nuw i8, ptr %4, i64 64
  store i64 %15, ptr %16, align 8, !tbaa !13
  %17 = getelementptr inbounds nuw i8, ptr %0, i64 8
  %18 = getelementptr inbounds nuw i8, ptr %0, i64 32
  %19 = getelementptr inbounds nuw i8, ptr %0, i64 40
  %20 = getelementptr inbounds nuw i8, ptr %0, i64 64
  store i64 0, ptr %20, align 8, !tbaa !13
  tail call void @llvm.memset.p0.i64(ptr noundef nonnull align 8 dereferenceable(28) %0, i8 0, i64 28, i1 false)
  tail call void @llvm.memset.p0.i64(ptr noundef nonnull align 8 dereferenceable(28) %18, i8 0, i64 28, i1 false)
  call void @llvm.lifetime.start.p0(i64 64, ptr nonnull %5) #12
  invoke void @_ZN4ncnn6OptionC1Ev(ptr noundef nonnull align 8 dereferenceable(64) %5)
          to label %21 unwind label %40

21:                                               ; preds = %3
  %22 = getelementptr inbounds nuw i8, ptr %5, i64 4
  store i32 1, ptr %22, align 4, !tbaa !44
  invoke void @_ZN4ncnn23cast_float16_to_float32ERKNS_3MatERS0_RKNS_6OptionE(ptr noundef nonnull align 8 dereferenceable(72) %4, ptr noundef nonnull align 8 dereferenceable(72) %0, ptr noundef nonnull align 8 dereferenceable(64) %5)
          to label %23 unwind label %40

23:                                               ; preds = %21
  call void @llvm.lifetime.end.p0(i64 64, ptr nonnull %5) #12
  %24 = load ptr, ptr %6, align 8, !tbaa !19
  %.not.i6 = icmp eq ptr %24, null
  br i1 %.not.i6, label %_ZN4ncnn3MatD2Ev.exit4, label %25

25:                                               ; preds = %23
  %26 = atomicrmw add ptr %24, i32 -1 acq_rel, align 4
  %27 = icmp eq i32 %26, 1
  br i1 %27, label %28, label %_ZN4ncnn3MatD2Ev.exit4

28:                                               ; preds = %25
  %29 = load ptr, ptr %9, align 8, !tbaa !30
  %.not3.i7 = icmp eq ptr %29, null
  %30 = load ptr, ptr %4, align 8, !tbaa !4
  br i1 %.not3.i7, label %35, label %31

31:                                               ; preds = %28
  %32 = load ptr, ptr %29, align 8, !tbaa !31
  %33 = getelementptr inbounds nuw i8, ptr %32, i64 24
  %34 = load ptr, ptr %33, align 8
  invoke void %34(ptr noundef nonnull align 8 dereferenceable(8) %29, ptr noundef %30)
          to label %_ZN4ncnn3MatD2Ev.exit4 unwind label %37

35:                                               ; preds = %28
  %.not.i15 = icmp eq ptr %30, null
  br i1 %.not.i15, label %_ZN4ncnn3MatD2Ev.exit4, label %36

36:                                               ; preds = %35
  call void @free(ptr noundef nonnull %30) #12
  br label %_ZN4ncnn3MatD2Ev.exit4

37:                                               ; preds = %31
  %38 = landingpad { ptr, i32 }
          catch ptr null
  %39 = extractvalue { ptr, i32 } %38, 0
  call void @__clang_call_terminate(ptr %39) #13
  unreachable

_ZN4ncnn3MatD2Ev.exit4:                           ; preds = %25, %23, %31, %35, %36
  call void @llvm.lifetime.end.p0(i64 72, ptr nonnull %4) #12
  ret void

40:                                               ; preds = %21, %3
  %41 = landingpad { ptr, i32 }
          cleanup
  call void @llvm.lifetime.end.p0(i64 64, ptr nonnull %5) #12
  %42 = load ptr, ptr %17, align 8, !tbaa !19
  %.not.i = icmp eq ptr %42, null
  br i1 %.not.i, label %_ZN4ncnn3MatD2Ev.exit5, label %43

43:                                               ; preds = %40
  %44 = atomicrmw add ptr %42, i32 -1 acq_rel, align 4
  %45 = icmp eq i32 %44, 1
  br i1 %45, label %46, label %_ZN4ncnn3MatD2Ev.exit5

46:                                               ; preds = %43
  %47 = load ptr, ptr %18, align 8, !tbaa !30
  %.not3.i = icmp eq ptr %47, null
  %48 = load ptr, ptr %0, align 8, !tbaa !4
  br i1 %.not3.i, label %53, label %49

49:                                               ; preds = %46
  %50 = load ptr, ptr %47, align 8, !tbaa !31
  %51 = getelementptr inbounds nuw i8, ptr %50, i64 24
  %52 = load ptr, ptr %51, align 8
  invoke void %52(ptr noundef nonnull align 8 dereferenceable(8) %47, ptr noundef %48)
          to label %_ZN4ncnn3MatD2Ev.exit5 unwind label %55

53:                                               ; preds = %46
  %.not.i17 = icmp eq ptr %48, null
  br i1 %.not.i17, label %_ZN4ncnn3MatD2Ev.exit5, label %54

54:                                               ; preds = %53
  call void @free(ptr noundef nonnull %48) #12
  br label %_ZN4ncnn3MatD2Ev.exit5

55:                                               ; preds = %49
  %56 = landingpad { ptr, i32 }
          catch ptr null
  %57 = extractvalue { ptr, i32 } %56, 0
  call void @__clang_call_terminate(ptr %57) #13
  unreachable

_ZN4ncnn3MatD2Ev.exit5:                           ; preds = %43, %40, %49, %53, %54
  store i64 0, ptr %20, align 8, !tbaa !13
  call void @llvm.memset.p0.i64(ptr noundef nonnull align 8 dereferenceable(28) %0, i8 0, i64 28, i1 false)
  call void @llvm.memset.p0.i64(ptr noundef nonnull align 8 dereferenceable(20) %19, i8 0, i64 20, i1 false)
  %58 = load ptr, ptr %6, align 8, !tbaa !19
  %.not.i10 = icmp eq ptr %58, null
  br i1 %.not.i10, label %_ZN4ncnn3MatD2Ev.exit, label %59

59:                                               ; preds = %_ZN4ncnn3MatD2Ev.exit5
  %60 = atomicrmw add ptr %58, i32 -1 acq_rel, align 4
  %61 = icmp eq i32 %60, 1
  br i1 %61, label %62, label %_ZN4ncnn3MatD2Ev.exit

62:                                               ; preds = %59
  %63 = load ptr, ptr %9, align 8, !tbaa !30
  %.not3.i11 = icmp eq ptr %63, null
  %64 = load ptr, ptr %4, align 8, !tbaa !4
  br i1 %.not3.i11, label %69, label %65

65:                                               ; preds = %62
  %66 = load ptr, ptr %63, align 8, !tbaa !31
  %67 = getelementptr inbounds nuw i8, ptr %66, i64 24
  %68 = load ptr, ptr %67, align 8
  invoke void %68(ptr noundef nonnull align 8 dereferenceable(8) %63, ptr noundef %64)
          to label %_ZN4ncnn3MatD2Ev.exit unwind label %71

69:                                               ; preds = %62
  %.not.i14 = icmp eq ptr %64, null
  br i1 %.not.i14, label %_ZN4ncnn3MatD2Ev.exit, label %70

70:                                               ; preds = %69
  call void @free(ptr noundef nonnull %64) #12
  br label %_ZN4ncnn3MatD2Ev.exit

71:                                               ; preds = %65
  %72 = landingpad { ptr, i32 }
          catch ptr null
  %73 = extractvalue { ptr, i32 } %72, 0
  call void @__clang_call_terminate(ptr %73) #13
  unreachable

_ZN4ncnn3MatD2Ev.exit:                            ; preds = %59, %_ZN4ncnn3MatD2Ev.exit5, %65, %69, %70
  call void @llvm.lifetime.end.p0(i64 72, ptr nonnull %4) #12
  resume { ptr, i32 } %41
}